target datalayout = "e-m:e-p270:32:32-p271:32:32-p272:64:64-i64:64-i128:128-f80:128-n8:16:32:64-S128"
target triple = "x86_64-pc-linux-gnu"

%union.pthread_mutex_t = type { %struct.__pthread_mutex_s }
%struct.__pthread_mutex_s = type { i32, i32, i32, i32, i32, i16, i16, %struct.__pthread_internal_list }
%struct.__pthread_internal_list = type { ptr, ptr }
%union.pthread_cond_t = type { %struct.__pthread_cond_s }
%struct.__pthread_cond_s = type { %union.__atomic_wide_counter, %union.__atomic_wide_counter, [2 x i32], [2 x i32], i32, i32, [2 x i32] }
%union.__atomic_wide_counter = type { i64 }
%struct.stepd_step_rec_t = type { ptr, ptr, i32, %union.pthread_cond_t, %union.pthread_mutex_t, %struct.slurm_step_id_msg, i32, i32, i32, i32, i32, i32, ptr, ptr, i32, i32, ptr, i32, i32, i32, i32, i32, ptr, ptr, ptr, ptr, i32, i32, i64, i64, i16, i32, ptr, ptr, ptr, i32, ptr, i32, ptr, i32, ptr, i16, i32, i32, i32, ptr, i32, ptr, ptr, ptr, ptr, i32, i32, ptr, ptr, i8, i8, i8, i64, i32, ptr, ptr, ptr, ptr, ptr, ptr, ptr, ptr, ptr, ptr, i32, i32, ptr, i8, %union.pthread_cond_t, %union.pthread_mutex_t, i64, ptr, i32, i32, i32, ptr, i64, ptr, ptr, i8, ptr, i16, ptr, ptr, ptr, ptr, ptr, ptr, i64, ptr, i64, ptr, i16, i8, i16, i32, ptr, i16, ptr, ptr, i16, ptr, ptr, ptr, i8 }
%struct.slurm_step_id_msg = type { i64, i32, i32, i32 }
%struct.timespec = type { i64, i64 }

@.str.22 = private unnamed_addr constant [29 x i8] c"%s: pthread_mutex_lock(): %m\00", align 1
@.str.23 = private unnamed_addr constant [31 x i8] c"%s: pthread_mutex_unlock(): %m\00", align 1
@.str.26 = private unnamed_addr constant [6 x i8] c"req.c\00", align 1
@__func__._wait_for_job_running = private unnamed_addr constant [22 x i8] c"_wait_for_job_running\00", align 1
@.str.88 = private unnamed_addr constant [39 x i8] c"%s:%d %s: pthread_cond_timedwait(): %m\00", align 1
@.str.89 = private unnamed_addr constant [37 x i8] c"%ps not running yet %d [cont_id:%lu]\00", align 1

; Function Attrs: nounwind uwtable
define internal i32 @_wait_for_job_running(ptr noundef %0) #0 {
  %2 = alloca ptr, align 8
  %3 = alloca %struct.timespec, align 8
  %4 = alloca i32, align 4
  %5 = alloca i32, align 4
  %6 = alloca i32, align 4
  %7 = alloca i32, align 4
  %8 = alloca i32, align 4
  store ptr %0, ptr %2, align 8
  call void @llvm.lifetime.start.p0(i64 16, ptr %3) #10
  call void @llvm.memset.p0.i64(ptr align 8 %3, i8 0, i64 16, i1 false)
  call void @llvm.lifetime.start.p0(i64 4, ptr %4) #10
  store i32 0, ptr %4, align 4
  call void @llvm.lifetime.start.p0(i64 4, ptr %5) #10
  store i32 0, ptr %5, align 4
  br label %9

9:                                                ; preds = %1
  call void @llvm.lifetime.start.p0(i64 4, ptr %6) #10
  %10 = load ptr, ptr %2, align 8
  %11 = getelementptr inbounds nuw %struct.stepd_step_rec_t, ptr %10, i32 0, i32 4
  %12 = call i32 @pthread_mutex_lock(ptr noundef %11) #10
  store i32 %12, ptr %6, align 4
  %13 = load i32, ptr %6, align 4
  %14 = icmp ne i32 %13, 0
  br i1 %14, label %15, label %18

15:                                               ; preds = %9
  %16 = load i32, ptr %6, align 4
  %17 = call ptr @__errno_location() #11
  store i32 %16, ptr %17, align 4
  call void (ptr, ...) @fatal_abort(ptr noundef @.str.22, ptr noundef @__func__._wait_for_job_running) #12
  unreachable

18:                                               ; preds = %9
  call void @llvm.lifetime.end.p0(i64 4, ptr %6) #10
  br label %19

19:                                               ; preds = %18
  br label %20

20:                                               ; preds = %19
  br label %21

21:                                               ; preds = %52, %20
  %22 = load ptr, ptr %2, align 8
  %23 = getelementptr inbounds nuw %struct.stepd_step_rec_t, ptr %22, i32 0, i32 2
  %24 = load i32, ptr %23, align 8
  %25 = icmp ult i32 %24, 2
  br i1 %25, label %26, label %29

26:                                               ; preds = %21
  %27 = load i32, ptr %4, align 4
  %28 = icmp slt i32 %27, 2
  br label %29

29:                                               ; preds = %26, %21
  %30 = phi i1 [ false, %21 ], [ %28, %26 ]
  br i1 %30, label %31, label %55

31:                                               ; preds = %29
  %32 = call i64 @time(ptr noundef null) #10
  %33 = add nsw i64 %32, 60
  %34 = getelementptr inbounds nuw %struct.timespec, ptr %3, i32 0, i32 0
  store i64 %33, ptr %34, align 8
  br label %35

35:                                               ; preds = %31
  call void @llvm.lifetime.start.p0(i64 4, ptr %7) #10
  %36 = load ptr, ptr %2, align 8
  %37 = getelementptr inbounds nuw %struct.stepd_step_rec_t, ptr %36, i32 0, i32 3
  %38 = load ptr, ptr %2, align 8
  %39 = getelementptr inbounds nuw %struct.stepd_step_rec_t, ptr %38, i32 0, i32 4
  %40 = call i32 @pthread_cond_timedwait(ptr noundef %37, ptr noundef %39, ptr noundef %3)
  store i32 %40, ptr %7, align 4
  %41 = load i32, ptr %7, align 4
  %42 = icmp ne i32 %41, 0
  br i1 %42, label %43, label %50

43:                                               ; preds = %35
  %44 = load i32, ptr %7, align 4
  %45 = icmp ne i32 %44, 110
  br i1 %45, label %46, label %50

46:                                               ; preds = %43
  %47 = load i32, ptr %7, align 4
  %48 = call ptr @__errno_location() #11
  store i32 %47, ptr %48, align 4
  %49 = call i32 (ptr, ...) @error(ptr noundef @.str.88, ptr noundef @.str.26, i32 noundef 282, ptr noundef @__func__._wait_for_job_running)
  br label %50

50:                                               ; preds = %46, %43, %35
  call void @llvm.lifetime.end.p0(i64 4, ptr %7) #10
  br label %51

51:                                               ; preds = %50
  br label %52

52:                                               ; preds = %51
  %53 = load i32, ptr %4, align 4
  %54 = add nsw i32 %53, 1
  store i32 %54, ptr %4, align 4
  br label %21, !llvm.loop !136

55:                                               ; preds = %29
  %56 = load ptr, ptr %2, align 8
  %57 = getelementptr inbounds nuw %struct.stepd_step_rec_t, ptr %56, i32 0, i32 2
  %58 = load i32, ptr %57, align 8
  %59 = icmp ult i32 %58, 2
  br i1 %59, label %60, label %79

60:                                               ; preds = %55
  br label %61

61:                                               ; preds = %60
  br label %62

62:                                               ; preds = %61
  %63 = call i32 @get_log_level()
  %64 = icmp sge i32 %63, 5
  br i1 %64, label %65, label %74

65:                                               ; preds = %62
  %66 = load ptr, ptr %2, align 8
  %67 = getelementptr inbounds nuw %struct.stepd_step_rec_t, ptr %66, i32 0, i32 5
  %68 = load ptr, ptr %2, align 8
  %69 = getelementptr inbounds nuw %struct.stepd_step_rec_t, ptr %68, i32 0, i32 2
  %70 = load i32, ptr %69, align 8
  %71 = load ptr, ptr %2, align 8
  %72 = getelementptr inbounds nuw %struct.stepd_step_rec_t, ptr %71, i32 0, i32 82
  %73 = load i64, ptr %72, align 8
  call void (i32, ptr, ...) @log_var(i32 noundef 5, ptr noundef @.str.89, ptr noundef %67, i32 noundef %70, i64 noundef %73)
  br label %74

74:                                               ; preds = %65, %62
  br label %75

75:                                               ; preds = %74
  br label %76

76:                                               ; preds = %75
  br label %77

77:                                               ; preds = %76
  br label %78

78:                                               ; preds = %77
  store i32 4027, ptr %5, align 4
  br label %79

79:                                               ; preds = %78, %55
  br label %80

80:                                               ; preds = %79
  call void @llvm.lifetime.start.p0(i64 4, ptr %8) #10
  %81 = load ptr, ptr %2, align 8
  %82 = getelementptr inbounds nuw %struct.stepd_step_rec_t, ptr %81, i32 0, i32 4
  %83 = call i32 @pthread_mutex_unlock(ptr noundef %82) #10
  store i32 %83, ptr %8, align 4
  %84 = load i32, ptr %8, align 4
  %85 = icmp ne i32 %84, 0
  br i1 %85, label %86, label %89

86:                                               ; preds = %80
  %87 = load i32, ptr %8, align 4
  %88 = call ptr @__errno_location() #11
  store i32 %87, ptr %88, align 4
  call void (ptr, ...) @fatal_abort(ptr noundef @.str.23, ptr noundef @__func__._wait_for_job_running) #12
  unreachable

89:                                               ; preds = %80
  call void @llvm.lifetime.end.p0(i64 4, ptr %8) #10
  br label %90

90:                                               ; preds = %89
  br label %91

91:                                               ; preds = %90
  %92 = load i32, ptr %5, align 4
  call void @llvm.lifetime.end.p0(i64 4, ptr %5) #10
  call void @llvm.lifetime.end.p0(i64 4, ptr %4) #10
  call void @llvm.lifetime.end.p0(i64 16, ptr %3) #10
  ret i32 %92
}