; Function Attrs: nounwind uwtable
define internal fastcc range(i32 0, 4028) i32 @_wait_for_job_running(ptr noundef %0) unnamed_addr #0 {
  %2 = alloca %struct.timespec, align 8
  call void @llvm.lifetime.start.p0(i64 16, ptr nonnull %2) #13
  call void @llvm.memset.p0.i64(ptr noundef nonnull align 8 dereferenceable(16) %2, i8 0, i64 16, i1 false)
  %3 = getelementptr inbounds nuw i8, ptr %0, i64 72
  %4 = tail call i32 @pthread_mutex_lock(ptr noundef nonnull %3) #13
  %.not = icmp eq i32 %4, 0
  br i1 %.not, label %.preheader, label %9

.preheader:                                       ; preds = %1
  %5 = getelementptr inbounds nuw i8, ptr %0, i64 16
  %6 = load i32, ptr %5, align 8
  %7 = icmp ult i32 %6, 2
  br i1 %7, label %.lr.ph, label %._crit_edge.thread

.lr.ph:                                           ; preds = %.preheader
  %8 = getelementptr inbounds nuw i8, ptr %0, i64 24
  br label %11

9:                                                ; preds = %1
  %10 = tail call ptr @__errno_location() #14
  store i32 %4, ptr %10, align 4
  tail call void (ptr, ...) @fatal_abort(ptr noundef nonnull @.str.22, ptr noundef nonnull @__func__._wait_for_job_running) #15
  unreachable

11:                                               ; preds = %.lr.ph, %19
  %12 = phi i1 [ true, %.lr.ph ], [ false, %19 ]
  %13 = call i64 @time(ptr noundef null) #13
  %14 = add nsw i64 %13, 60
  store i64 %14, ptr %2, align 8
  %15 = call i32 @pthread_cond_timedwait(ptr noundef nonnull %8, ptr noundef nonnull %3, ptr noundef nonnull %2) #13
  switch i32 %15, label %16 [
    i32 110, label %19
    i32 0, label %19
  ]

16:                                               ; preds = %11
  %17 = tail call ptr @__errno_location() #14
  store i32 %15, ptr %17, align 4
  %18 = call i32 (ptr, ...) @error(ptr noundef nonnull @.str.88, ptr noundef nonnull @.str.26, i32 noundef 282, ptr noundef nonnull @__func__._wait_for_job_running) #13
  br label %19

19:                                               ; preds = %11, %11, %16
  %20 = load i32, ptr %5, align 8
  %21 = icmp ult i32 %20, 2
  %22 = and i1 %21, %12
  br i1 %22, label %11, label %._crit_edge, !llvm.loop !135

._crit_edge:                                      ; preds = %19
  br i1 %21, label %23, label %._crit_edge.thread

23:                                               ; preds = %._crit_edge
  %24 = call i32 @get_log_level() #13
  %25 = icmp sgt i32 %24, 4
  br i1 %25, label %26, label %._crit_edge.thread

26:                                               ; preds = %23
  %27 = getelementptr inbounds nuw i8, ptr %0, i64 112
  %28 = load i32, ptr %5, align 8
  %29 = getelementptr inbounds nuw i8, ptr %0, i64 696
  %30 = load i64, ptr %29, align 8
  call void (i32, ptr, ...) @log_var(i32 noundef 5, ptr noundef nonnull @.str.89, ptr noundef nonnull %27, i32 noundef %28, i64 noundef %30) #13
  br label %._crit_edge.thread

._crit_edge.thread:                               ; preds = %.preheader, %23, %26, %._crit_edge
  %.019 = phi i32 [ 0, %._crit_edge ], [ 4027, %26 ], [ 4027, %23 ], [ 0, %.preheader ]
  %31 = call i32 @pthread_mutex_unlock(ptr noundef nonnull %3) #13
  %.not23 = icmp eq i32 %31, 0
  br i1 %.not23, label %34, label %32

32:                                               ; preds = %._crit_edge.thread
  %33 = tail call ptr @__errno_location() #14
  store i32 %31, ptr %33, align 4
  call void (ptr, ...) @fatal_abort(ptr noundef nonnull @.str.23, ptr noundef nonnull @__func__._wait_for_job_running) #15
  unreachable

34:                                               ; preds = %._crit_edge.thread
  call void @llvm.lifetime.end.p0(i64 16, ptr nonnull %2) #13
  ret i32 %.019
}